; Function Attrs: inlinehint mustprogress nounwind uwtable
define internal void @_ZN8ImVectorIN12_GLOBAL__N_16MyItemEED2Ev(ptr noundef nonnull readonly align 8 captures(none) dereferenceable(16) %0) unnamed_addr #8 align 2 personality ptr @__gxx_personality_v0 {
  %2 = getelementptr inbounds nuw i8, ptr %0, i64 8
  %3 = load ptr, ptr %2, align 8, !tbaa !354
  %.not = icmp eq ptr %3, null
  br i1 %.not, label %5, label %4

4:                                                ; preds = %1
  invoke void @_ZN5ImGui7MemFreeEPv(ptr noundef nonnull %3)
          to label %5 unwind label %6

5:                                                ; preds = %4, %1
  ret void

6:                                                ; preds = %4
  %7 = landingpad { ptr, i32 }
          catch ptr null
  %8 = extractvalue { ptr, i32 } %7, 0
  tail call void @__clang_call_terminate(ptr %8) #35
  unreachable
}